target datalayout = "e-m:e-p270:32:32-p271:32:32-p272:64:64-i64:64-i128:128-f80:128-n8:16:32:64-S128"
target triple = "x86_64-pc-linux-gnu"

@.str = private unnamed_addr constant [129 x i8] c"generated/home/dtcxzyw/WorkSpace/Projects/compilers/llvm-opt-benchmark/bench/abseil-cpp/abseil-cpp/absl/synchronization/mutex.cc\00", align 1
@.str.68 = private unnamed_addr constant [127 x i8] c"Check (v & (kMuWriter | kMuReader)) != (kMuWriter | kMuReader) failed: %s: Mutex corrupt: both reader and writer lock held: %p\00", align 1
@.str.69 = private unnamed_addr constant [109 x i8] c"Check (v & (kMuWait | kMuWrWait)) != kMuWrWait failed: %s: Mutex corrupt: waiting writer with no waiters: %p\00", align 1

; Function Attrs: mustprogress uwtable
define internal void @_ZN4abslL23CheckForMutexCorruptionElPKc(i64 noundef %0, ptr noundef %1) #0 {
  %3 = alloca i64, align 8
  %4 = alloca ptr, align 8
  %5 = alloca i64, align 8
  %6 = alloca i32, align 4
  %7 = alloca ptr, align 8
  %8 = alloca ptr, align 8
  store i64 %0, ptr %3, align 8, !tbaa !32
  store ptr %1, ptr %4, align 8, !tbaa !23
  call void @llvm.lifetime.start.p0(i64 8, ptr %5) #18
  %9 = load i64, ptr %3, align 8, !tbaa !32
  %10 = xor i64 %9, 4
  store i64 %10, ptr %5, align 8, !tbaa !32
  %11 = load i64, ptr %5, align 8, !tbaa !32
  %12 = load i64, ptr %5, align 8, !tbaa !32
  %13 = shl i64 %12, 3
  %14 = and i64 %11, %13
  %15 = and i64 %14, 40
  %16 = icmp eq i64 %15, 0
  %17 = zext i1 %16 to i64
  %18 = call i64 @llvm.expect.i64(i64 %17, i64 1)
  %19 = icmp ne i64 %18, 0
  br i1 %19, label %20, label %21

20:                                               ; preds = %2
  store i32 1, ptr %6, align 4
  br label %64

21:                                               ; preds = %2
  br label %22

22:                                               ; preds = %21
  %23 = load i64, ptr %3, align 8, !tbaa !32
  %24 = and i64 %23, 9
  %25 = icmp ne i64 %24, 9
  %26 = xor i1 %25, true
  %27 = zext i1 %26 to i64
  %28 = call i64 @llvm.expect.i64(i64 %27, i64 0)
  %29 = icmp ne i64 %28, 0
  br i1 %29, label %30, label %40

30:                                               ; preds = %22
  br label %31

31:                                               ; preds = %30
  call void @llvm.lifetime.start.p0(i64 8, ptr %7) #18
  store ptr getelementptr (i8, ptr @.str, i64 120), ptr %7, align 8, !tbaa !23
  %32 = load ptr, ptr %4, align 8, !tbaa !23
  %33 = load i64, ptr %3, align 8, !tbaa !32
  %34 = inttoptr i64 %33 to ptr
  call void (i32, ptr, i32, ptr, ...) @_ZN4absl16raw_log_internal6RawLogENS_11LogSeverityEPKciS3_z(i32 noundef 3, ptr noundef getelementptr (i8, ptr @.str, i64 120), i32 noundef 1989, ptr noundef @.str.68, ptr noundef %32, ptr noundef %34)
  br label %35

35:                                               ; preds = %31
  unreachable

36:                                               ; No predecessors!
  br label %37

37:                                               ; preds = %36
  call void @llvm.lifetime.end.p0(i64 8, ptr %7) #18
  br label %38

38:                                               ; preds = %37
  br label %39

39:                                               ; preds = %38
  br label %40

40:                                               ; preds = %39, %22
  br label %41

41:                                               ; preds = %40
  br label %42

42:                                               ; preds = %41
  br label %43

43:                                               ; preds = %42
  %44 = load i64, ptr %3, align 8, !tbaa !32
  %45 = and i64 %44, 36
  %46 = icmp ne i64 %45, 32
  %47 = xor i1 %46, true
  %48 = zext i1 %47 to i64
  %49 = call i64 @llvm.expect.i64(i64 %48, i64 0)
  %50 = icmp ne i64 %49, 0
  br i1 %50, label %51, label %61

51:                                               ; preds = %43
  br label %52

52:                                               ; preds = %51
  call void @llvm.lifetime.start.p0(i64 8, ptr %8) #18
  store ptr getelementptr (i8, ptr @.str, i64 120), ptr %8, align 8, !tbaa !23
  %53 = load ptr, ptr %4, align 8, !tbaa !23
  %54 = load i64, ptr %3, align 8, !tbaa !32
  %55 = inttoptr i64 %54 to ptr
  call void (i32, ptr, i32, ptr, ...) @_ZN4absl16raw_log_internal6RawLogENS_11LogSeverityEPKciS3_z(i32 noundef 3, ptr noundef getelementptr (i8, ptr @.str, i64 120), i32 noundef 1992, ptr noundef @.str.69, ptr noundef %53, ptr noundef %55)
  br label %56

56:                                               ; preds = %52
  unreachable

57:                                               ; No predecessors!
  br label %58

58:                                               ; preds = %57
  call void @llvm.lifetime.end.p0(i64 8, ptr %8) #18
  br label %59

59:                                               ; preds = %58
  br label %60

60:                                               ; preds = %59
  br label %61

61:                                               ; preds = %60, %43
  br label %62

62:                                               ; preds = %61
  br label %63

63:                                               ; preds = %62
  store i32 0, ptr %6, align 4
  br label %64

64:                                               ; preds = %63, %20
  call void @llvm.lifetime.end.p0(i64 8, ptr %5) #18
  %65 = load i32, ptr %6, align 4
  switch i32 %65, label %67 [
    i32 0, label %66
    i32 1, label %66
  ]

66:                                               ; preds = %64, %64
  ret void

67:                                               ; preds = %64
  unreachable
}