; Function Attrs: mustprogress uwtable
define internal fastcc void @_ZN4abslL23CheckForMutexCorruptionElPKc(i64 noundef %0, ptr noundef %1) unnamed_addr #0 {
  %3 = shl i64 %0, 3
  %4 = xor i64 %3, 32
  %5 = and i64 %0, 40
  %6 = and i64 %5, %4
  %7 = icmp eq i64 %6, 0
  br i1 %7, label %16, label %8, !prof !19

8:                                                ; preds = %2
  %9 = and i64 %0, 9
  %.not = icmp eq i64 %9, 9
  br i1 %.not, label %10, label %12, !prof !83

10:                                               ; preds = %8
  %11 = inttoptr i64 %0 to ptr
  tail call void (i32, ptr, i32, ptr, ...) @_ZN4absl16raw_log_internal6RawLogENS_11LogSeverityEPKciS3_z(i32 noundef 3, ptr noundef nonnull getelementptr inbounds nuw (i8, ptr @.str, i64 120), i32 noundef 1989, ptr noundef nonnull @.str.68, ptr noundef %1, ptr noundef %11)
  unreachable

12:                                               ; preds = %8
  %13 = and i64 %0, 36
  %.not8 = icmp eq i64 %13, 32
  br i1 %.not8, label %14, label %16, !prof !83

14:                                               ; preds = %12
  %15 = inttoptr i64 %0 to ptr
  tail call void (i32, ptr, i32, ptr, ...) @_ZN4absl16raw_log_internal6RawLogENS_11LogSeverityEPKciS3_z(i32 noundef 3, ptr noundef nonnull getelementptr inbounds nuw (i8, ptr @.str, i64 120), i32 noundef 1992, ptr noundef nonnull @.str.69, ptr noundef %1, ptr noundef %15)
  unreachable

16:                                               ; preds = %12, %2
  ret void
}